(ioptparse
Values
p0
(dp1
S'selected_nodes'
p2
(lp3
S'path32017:0:7'
p4
aS'path32017:0:6'
p5
aS'path32017:0:5'
p6
aS'path32017:0:4'
p7
aS'path32017:0:3'
p8
aS'path32017:0:2'
p9
aS'path32017:0:1'
p10
aS'path32017:0:0'
p11
asS'autoflatten'
p12
I01
sS'filetype'
p13
S'kicad_module'
p14
sS'ids'
p15
(lp16
S'path32017'
p17
asS'crop'
p18
I00
sS'debug'
p19
I00
sS'openkicad'
p20
I00
sS'openfactory'
p21
I00
sS'threshold'
p22
F128.0
sS'path'
p23
S'/home/dusjagr/Documents/8bit_Mixtape/8Bit_EuroRack/KiCAD/8Bit_EuroRack.pretty'
p24
sS'dpi'
p25
F2000.0
sb.